; Function Attrs: mustprogress uwtable
define dso_local void @_ZNK17cmGlobalGenerator22CreateLinkLineComputerEP17cmOutputConverterRK16cmStateDirectory(ptr dead_on_unwind noalias nocapture writable writeonly sret(%"class.std::unique_ptr.921") align 8 %0, ptr nocapture nonnull readnone align 8 %1, ptr noundef %2, ptr noundef nonnull align 8 dereferenceable(40) %3) unnamed_addr #3 align 2 personality ptr @__gxx_personality_v0 {
  tail call void @llvm.experimental.noalias.scope.decl(metadata !671)
  %5 = tail call noalias noundef nonnull dereferenceable(64) ptr @_Znwm(i64 noundef 64) #27, !noalias !671
  invoke void @_ZN18cmLinkLineComputerC1EP17cmOutputConverterRK16cmStateDirectory(ptr noundef nonnull align 8 dereferenceable(60) %5, ptr noundef %2, ptr noundef nonnull align 8 dereferenceable(40) %3)
          to label %_ZSt11make_uniqueI18cmLinkLineComputerJRP17cmOutputConverterRK16cmStateDirectoryEENSt8__detail9_MakeUniqIT_E15__single_objectEDpOT0_.exit unwind label %6, !noalias !671

6:                                                ; preds = %4
  %7 = landingpad { ptr, i32 }
          cleanup
  tail call void @_ZdlPv(ptr noundef nonnull %5) #26, !noalias !671
  resume { ptr, i32 } %7

_ZSt11make_uniqueI18cmLinkLineComputerJRP17cmOutputConverterRK16cmStateDirectoryEENSt8__detail9_MakeUniqIT_E15__single_objectEDpOT0_.exit: ; preds = %4
  store ptr %5, ptr %0, align 8, !alias.scope !671
  ret void
}